; Function Attrs: nounwind uwtable
define hidden i32 @lj_crecord_topuint8(ptr noundef %0, i32 noundef %1) local_unnamed_addr #0 {
  %3 = tail call i32 @lj_ir_kint(ptr noundef %0, i32 noundef 20) #8
  %4 = trunc i32 %3 to i16
  %5 = trunc i32 %1 to i16
  %6 = getelementptr inbounds nuw i8, ptr %0, i64 184
  %7 = getelementptr inbounds nuw i8, ptr %0, i64 188
  store i16 21642, ptr %7, align 4, !tbaa !31
  store i16 %4, ptr %6, align 8, !tbaa !31
  %8 = getelementptr inbounds nuw i8, ptr %0, i64 186
  store i16 %5, ptr %8, align 2, !tbaa !31
  %9 = tail call i32 @lj_opt_fold(ptr noundef %0) #8
  ret i32 %9
}